target datalayout = "e-m:e-p270:32:32-p271:32:32-p272:64:64-i64:64-i128:128-f80:128-n8:16:32:64-S128"
target triple = "x86_64-pc-linux-gnu"

%struct.AVFilterContext = type { ptr, ptr, ptr, ptr, ptr, i32, ptr, ptr, i32, ptr, ptr, i32, i32, ptr, ptr, ptr, ptr, i32, ptr, i32, i32 }
%struct.ConvolveContext = type { ptr, %struct.FFFrameSync, [4 x [16 x ptr]], [4 x [16 x ptr]], [4 x ptr], [4 x ptr], [4 x i32], [4 x i32], [4 x i32], [4 x i32], [4 x i32], [4 x i32], [4 x i32], [4 x ptr], [4 x ptr], [4 x ptr], [4 x ptr], [4 x ptr], [4 x ptr], [4 x ptr], [4 x ptr], i32, i32, i32, float, i32, [4 x i32], ptr, ptr, ptr, ptr }
%struct.FFFrameSync = type { ptr, ptr, i32, %struct.AVRational, i64, ptr, ptr, i32, i32, i8, i8, ptr, i32, i32, i32, i32 }
%struct.AVRational = type { i32, i32 }
%struct.ThreadData = type { ptr, ptr, ptr, ptr, i32, i32 }

; Function Attrs: nounwind uwtable
define internal void @prepare_secondary(ptr noundef %0, ptr noundef %1, i32 noundef %2) #0 {
  %4 = alloca ptr, align 8
  %5 = alloca ptr, align 8
  %6 = alloca i32, align 4
  %7 = alloca ptr, align 8
  %8 = alloca i32, align 4
  %9 = alloca %struct.ThreadData, align 8
  store ptr %0, ptr %4, align 8, !tbaa !4
  store ptr %1, ptr %5, align 8, !tbaa !80
  store i32 %2, ptr %6, align 4, !tbaa !37
  call void @llvm.lifetime.start.p0(i64 8, ptr %7) #10
  %10 = load ptr, ptr %4, align 8, !tbaa !4
  %11 = getelementptr inbounds nuw %struct.AVFilterContext, ptr %10, i32 0, i32 9
  %12 = load ptr, ptr %11, align 8, !tbaa !9
  store ptr %12, ptr %7, align 8, !tbaa !22
  call void @llvm.lifetime.start.p0(i64 4, ptr %8) #10
  %13 = load ptr, ptr %7, align 8, !tbaa !22
  %14 = getelementptr inbounds nuw %struct.ConvolveContext, ptr %13, i32 0, i32 6
  %15 = load i32, ptr %6, align 4, !tbaa !37
  %16 = sext i32 %15 to i64
  %17 = getelementptr inbounds [4 x i32], ptr %14, i64 0, i64 %16
  %18 = load i32, ptr %17, align 4, !tbaa !37
  store i32 %18, ptr %8, align 4, !tbaa !37
  call void @llvm.lifetime.start.p0(i64 40, ptr %9) #10
  %19 = load ptr, ptr %7, align 8, !tbaa !22
  %20 = getelementptr inbounds nuw %struct.ConvolveContext, ptr %19, i32 0, i32 27
  %21 = load ptr, ptr %20, align 8, !tbaa !35
  %22 = load ptr, ptr %7, align 8, !tbaa !22
  %23 = load ptr, ptr %7, align 8, !tbaa !22
  %24 = getelementptr inbounds nuw %struct.ConvolveContext, ptr %23, i32 0, i32 17
  %25 = load i32, ptr %6, align 4, !tbaa !37
  %26 = sext i32 %25 to i64
  %27 = getelementptr inbounds [4 x ptr], ptr %24, i64 0, i64 %26
  %28 = load ptr, ptr %27, align 8, !tbaa !63
  %29 = load ptr, ptr %5, align 8, !tbaa !80
  %30 = load ptr, ptr %7, align 8, !tbaa !22
  %31 = getelementptr inbounds nuw %struct.ConvolveContext, ptr %30, i32 0, i32 11
  %32 = load i32, ptr %6, align 4, !tbaa !37
  %33 = sext i32 %32 to i64
  %34 = getelementptr inbounds [4 x i32], ptr %31, i64 0, i64 %33
  %35 = load i32, ptr %34, align 4, !tbaa !37
  %36 = load ptr, ptr %7, align 8, !tbaa !22
  %37 = getelementptr inbounds nuw %struct.ConvolveContext, ptr %36, i32 0, i32 12
  %38 = load i32, ptr %6, align 4, !tbaa !37
  %39 = sext i32 %38 to i64
  %40 = getelementptr inbounds [4 x i32], ptr %37, i64 0, i64 %39
  %41 = load i32, ptr %40, align 4, !tbaa !37
  %42 = load i32, ptr %8, align 4, !tbaa !37
  %43 = load i32, ptr %6, align 4, !tbaa !37
  call void %21(ptr noundef %22, ptr noundef %28, ptr noundef %29, i32 noundef %35, i32 noundef %41, i32 noundef %42, i32 noundef %43, float noundef 1.000000e+00)
  %44 = load i32, ptr %8, align 4, !tbaa !37
  %45 = getelementptr inbounds nuw %struct.ThreadData, ptr %9, i32 0, i32 5
  store i32 %44, ptr %45, align 4, !tbaa !85
  %46 = load i32, ptr %6, align 4, !tbaa !37
  %47 = getelementptr inbounds nuw %struct.ThreadData, ptr %9, i32 0, i32 4
  store i32 %46, ptr %47, align 8, !tbaa !83
  %48 = load ptr, ptr %7, align 8, !tbaa !22
  %49 = getelementptr inbounds nuw %struct.ConvolveContext, ptr %48, i32 0, i32 17
  %50 = load i32, ptr %6, align 4, !tbaa !37
  %51 = sext i32 %50 to i64
  %52 = getelementptr inbounds [4 x ptr], ptr %49, i64 0, i64 %51
  %53 = load ptr, ptr %52, align 8, !tbaa !63
  %54 = getelementptr inbounds nuw %struct.ThreadData, ptr %9, i32 0, i32 0
  store ptr %53, ptr %54, align 8, !tbaa !86
  %55 = load ptr, ptr %7, align 8, !tbaa !22
  %56 = getelementptr inbounds nuw %struct.ConvolveContext, ptr %55, i32 0, i32 18
  %57 = load i32, ptr %6, align 4, !tbaa !37
  %58 = sext i32 %57 to i64
  %59 = getelementptr inbounds [4 x ptr], ptr %56, i64 0, i64 %58
  %60 = load ptr, ptr %59, align 8, !tbaa !63
  %61 = getelementptr inbounds nuw %struct.ThreadData, ptr %9, i32 0, i32 1
  store ptr %60, ptr %61, align 8, !tbaa !87
  %62 = load ptr, ptr %7, align 8, !tbaa !22
  %63 = getelementptr inbounds nuw %struct.ConvolveContext, ptr %62, i32 0, i32 19
  %64 = load i32, ptr %6, align 4, !tbaa !37
  %65 = sext i32 %64 to i64
  %66 = getelementptr inbounds [4 x ptr], ptr %63, i64 0, i64 %65
  %67 = load ptr, ptr %66, align 8, !tbaa !63
  %68 = getelementptr inbounds nuw %struct.ThreadData, ptr %9, i32 0, i32 2
  store ptr %67, ptr %68, align 8, !tbaa !88
  %69 = load ptr, ptr %7, align 8, !tbaa !22
  %70 = getelementptr inbounds nuw %struct.ConvolveContext, ptr %69, i32 0, i32 20
  %71 = load i32, ptr %6, align 4, !tbaa !37
  %72 = sext i32 %71 to i64
  %73 = getelementptr inbounds [4 x ptr], ptr %70, i64 0, i64 %72
  %74 = load ptr, ptr %73, align 8, !tbaa !63
  %75 = getelementptr inbounds nuw %struct.ThreadData, ptr %9, i32 0, i32 3
  store ptr %74, ptr %75, align 8, !tbaa !89
  %76 = load ptr, ptr %4, align 8, !tbaa !4
  %77 = load i32, ptr %8, align 4, !tbaa !37
  %78 = icmp sgt i32 16, %77
  br i1 %78, label %79, label %81

79:                                               ; preds = %3
  %80 = load i32, ptr %8, align 4, !tbaa !37
  br label %82

81:                                               ; preds = %3
  br label %82

82:                                               ; preds = %81, %79
  %83 = phi i32 [ %80, %79 ], [ 16, %81 ]
  %84 = load ptr, ptr %4, align 8, !tbaa !4
  %85 = call i32 @ff_filter_get_nb_threads(ptr noundef %84) #11
  %86 = icmp sgt i32 %83, %85
  br i1 %86, label %87, label %90

87:                                               ; preds = %82
  %88 = load ptr, ptr %4, align 8, !tbaa !4
  %89 = call i32 @ff_filter_get_nb_threads(ptr noundef %88) #11
  br label %98

90:                                               ; preds = %82
  %91 = load i32, ptr %8, align 4, !tbaa !37
  %92 = icmp sgt i32 16, %91
  br i1 %92, label %93, label %95

93:                                               ; preds = %90
  %94 = load i32, ptr %8, align 4, !tbaa !37
  br label %96

95:                                               ; preds = %90
  br label %96

96:                                               ; preds = %95, %93
  %97 = phi i32 [ %94, %93 ], [ 16, %95 ]
  br label %98

98:                                               ; preds = %96, %87
  %99 = phi i32 [ %89, %87 ], [ %97, %96 ]
  %100 = call i32 @ff_filter_execute(ptr noundef %76, ptr noundef @fft_horizontal, ptr noundef %9, ptr noundef null, i32 noundef %99)
  %101 = load ptr, ptr %4, align 8, !tbaa !4
  %102 = load i32, ptr %8, align 4, !tbaa !37
  %103 = icmp sgt i32 16, %102
  br i1 %103, label %104, label %106

104:                                              ; preds = %98
  %105 = load i32, ptr %8, align 4, !tbaa !37
  br label %107

106:                                              ; preds = %98
  br label %107

107:                                              ; preds = %106, %104
  %108 = phi i32 [ %105, %104 ], [ 16, %106 ]
  %109 = load ptr, ptr %4, align 8, !tbaa !4
  %110 = call i32 @ff_filter_get_nb_threads(ptr noundef %109) #11
  %111 = icmp sgt i32 %108, %110
  br i1 %111, label %112, label %115

112:                                              ; preds = %107
  %113 = load ptr, ptr %4, align 8, !tbaa !4
  %114 = call i32 @ff_filter_get_nb_threads(ptr noundef %113) #11
  br label %123

115:                                              ; preds = %107
  %116 = load i32, ptr %8, align 4, !tbaa !37
  %117 = icmp sgt i32 16, %116
  br i1 %117, label %118, label %120

118:                                              ; preds = %115
  %119 = load i32, ptr %8, align 4, !tbaa !37
  br label %121

120:                                              ; preds = %115
  br label %121

121:                                              ; preds = %120, %118
  %122 = phi i32 [ %119, %118 ], [ 16, %120 ]
  br label %123

123:                                              ; preds = %121, %112
  %124 = phi i32 [ %114, %112 ], [ %122, %121 ]
  %125 = call i32 @ff_filter_execute(ptr noundef %101, ptr noundef @fft_vertical, ptr noundef %9, ptr noundef null, i32 noundef %124)
  %126 = load ptr, ptr %7, align 8, !tbaa !22
  %127 = getelementptr inbounds nuw %struct.ConvolveContext, ptr %126, i32 0, i32 26
  %128 = load i32, ptr %6, align 4, !tbaa !37
  %129 = sext i32 %128 to i64
  %130 = getelementptr inbounds [4 x i32], ptr %127, i64 0, i64 %129
  store i32 1, ptr %130, align 4, !tbaa !37
  call void @llvm.lifetime.end.p0(i64 40, ptr %9) #10
  call void @llvm.lifetime.end.p0(i64 4, ptr %8) #10
  call void @llvm.lifetime.end.p0(i64 8, ptr %7) #10
  ret void
}