; Function Attrs: nounwind uwtable
define internal void @prepare_secondary(ptr noundef %0, ptr noundef %1, i32 noundef %2) #0 {
  %4 = alloca %struct.ThreadData, align 8
  %5 = getelementptr inbounds nuw i8, ptr %0, i64 72
  %6 = load ptr, ptr %5, align 8, !tbaa !4
  %7 = getelementptr inbounds nuw i8, ptr %6, i64 1192
  %8 = sext i32 %2 to i64
  %9 = getelementptr inbounds [4 x i32], ptr %7, i64 0, i64 %8
  %10 = load i32, ptr %9, align 4, !tbaa !49
  call void @llvm.lifetime.start.p0(i64 40, ptr nonnull %4) #14
  %11 = getelementptr inbounds nuw i8, ptr %6, i64 1600
  %12 = load ptr, ptr %11, align 8, !tbaa !32
  %13 = getelementptr inbounds nuw i8, ptr %6, i64 1432
  %14 = getelementptr inbounds [4 x ptr], ptr %13, i64 0, i64 %8
  %15 = load ptr, ptr %14, align 8, !tbaa !58
  %16 = getelementptr inbounds nuw i8, ptr %6, i64 1272
  %17 = getelementptr inbounds [4 x i32], ptr %16, i64 0, i64 %8
  %18 = load i32, ptr %17, align 4, !tbaa !49
  %19 = getelementptr inbounds nuw i8, ptr %6, i64 1288
  %20 = getelementptr inbounds [4 x i32], ptr %19, i64 0, i64 %8
  %21 = load i32, ptr %20, align 4, !tbaa !49
  tail call void %12(ptr noundef %6, ptr noundef %15, ptr noundef %1, i32 noundef %18, i32 noundef %21, i32 noundef %10, i32 noundef %2, float noundef 1.000000e+00) #14
  %22 = getelementptr inbounds nuw i8, ptr %4, i64 36
  store i32 %10, ptr %22, align 4, !tbaa !75
  %23 = getelementptr inbounds nuw i8, ptr %4, i64 32
  store i32 %2, ptr %23, align 8, !tbaa !73
  %24 = load ptr, ptr %14, align 8, !tbaa !58
  store ptr %24, ptr %4, align 8, !tbaa !76
  %25 = getelementptr inbounds nuw i8, ptr %6, i64 1464
  %26 = getelementptr inbounds [4 x ptr], ptr %25, i64 0, i64 %8
  %27 = load ptr, ptr %26, align 8, !tbaa !58
  %28 = getelementptr inbounds nuw i8, ptr %4, i64 8
  store ptr %27, ptr %28, align 8, !tbaa !77
  %29 = getelementptr inbounds nuw i8, ptr %6, i64 1496
  %30 = getelementptr inbounds [4 x ptr], ptr %29, i64 0, i64 %8
  %31 = load ptr, ptr %30, align 8, !tbaa !58
  %32 = getelementptr inbounds nuw i8, ptr %4, i64 16
  store ptr %31, ptr %32, align 8, !tbaa !78
  %33 = getelementptr inbounds nuw i8, ptr %6, i64 1528
  %34 = getelementptr inbounds [4 x ptr], ptr %33, i64 0, i64 %8
  %35 = load ptr, ptr %34, align 8, !tbaa !58
  %36 = getelementptr inbounds nuw i8, ptr %4, i64 24
  store ptr %35, ptr %36, align 8, !tbaa !79
  %37 = tail call i32 @llvm.smin.i32(i32 %10, i32 16)
  %38 = tail call i32 @ff_filter_get_nb_threads(ptr noundef %0) #15
  %. = tail call i32 @llvm.smin.i32(i32 %37, i32 %38)
  %39 = call i32 @ff_filter_execute(ptr noundef %0, ptr noundef nonnull @fft_horizontal, ptr noundef nonnull %4, ptr noundef null, i32 noundef %.) #14
  %40 = call i32 @ff_filter_get_nb_threads(ptr noundef %0) #15
  %41 = call i32 @llvm.smin.i32(i32 %37, i32 %40)
  %42 = call i32 @ff_filter_execute(ptr noundef %0, ptr noundef nonnull @fft_vertical, ptr noundef nonnull %4, ptr noundef null, i32 noundef %41) #14
  %43 = getelementptr inbounds nuw i8, ptr %6, i64 1580
  %44 = getelementptr inbounds [4 x i32], ptr %43, i64 0, i64 %8
  store i32 1, ptr %44, align 4, !tbaa !49
  call void @llvm.lifetime.end.p0(i64 40, ptr nonnull %4) #14
  ret void
}